target datalayout = "e-m:e-p270:32:32-p271:32:32-p272:64:64-i64:64-i128:128-f80:128-n8:16:32:64-S128"
target triple = "x86_64-pc-linux-gnu"

%class.constantPoolHandle = type { ptr, ptr }
%class.JvmtiClassFileReconstituter = type { %class.JvmtiConstantPoolReconstituter.base, i64, ptr, ptr, ptr }
%class.JvmtiConstantPoolReconstituter.base = type <{ i32, [4 x i8], ptr, ptr, %class.constantPoolHandle, ptr, i32 }>
%class.CheckedExceptionElement = type { i16 }
%struct.ByteswapImpl = type { i8 }
%struct.ByteswapImpl.14 = type { i8 }

@.str.12 = private unnamed_addr constant [11 x i8] c"Exceptions\00", align 1

; Function Attrs: mustprogress nounwind uwtable
define internal noundef i64 @_ZL14alignment_maskImTnNSt9enable_ifIXcvbsr3std11is_integralIT_EE5valueEiE4typeELi0EES1_S1_(i64 noundef %0) #1 {
  %2 = alloca i64, align 8
  store i64 %0, ptr %2, align 8
  %3 = load i64, ptr %2, align 8
  %4 = sub i64 %3, 1
  ret i64 %4
}

; Function Attrs: mustprogress nounwind uwtable
define linkonce_odr hidden noundef zeroext i1 @_Z10is_alignedImmTnNSt9enable_ifIXcvbsr3std11is_integralIT_EE5valueEiE4typeELi0EEbS1_T0_(i64 noundef %0, i64 noundef %1) #1 comdat {
  %3 = alloca i64, align 8
  %4 = alloca i64, align 8
  store i64 %0, ptr %3, align 8
  store i64 %1, ptr %4, align 8
  %5 = load i64, ptr %3, align 8
  %6 = load i64, ptr %4, align 8
  %7 = call noundef i64 @_ZL14alignment_maskImTnNSt9enable_ifIXcvbsr3std11is_integralIT_EE5valueEiE4typeELi0EES1_S1_(i64 noundef %6)
  %8 = and i64 %5, %7
  %9 = icmp eq i64 %8, 0
  ret i1 %9
}

; Function Attrs: mustprogress nounwind uwtable
define linkonce_odr hidden noundef zeroext i16 @_ZNK12ByteswapImplItLm2EEclEt(ptr noundef nonnull align 1 dereferenceable(1) %0, i16 noundef zeroext %1) #1 comdat align 2 {
  %3 = alloca ptr, align 8
  %4 = alloca i16, align 2
  store ptr %0, ptr %3, align 8
  store i16 %1, ptr %4, align 2
  %5 = load i16, ptr %4, align 2
  %6 = call i16 @llvm.bswap.i16(i16 %5)
  ret i16 %6
}

; Function Attrs: mustprogress nounwind uwtable
define linkonce_odr hidden noundef zeroext i1 @_Z10is_alignedIvmEbPT_T0_(ptr noundef %0, i64 noundef %1) #1 comdat {
  %3 = alloca ptr, align 8
  %4 = alloca i64, align 8
  store ptr %0, ptr %3, align 8
  store i64 %1, ptr %4, align 8
  %5 = load ptr, ptr %3, align 8
  %6 = ptrtoint ptr %5 to i64
  %7 = load i64, ptr %4, align 8
  %8 = call noundef zeroext i1 @_Z10is_alignedImmTnNSt9enable_ifIXcvbsr3std11is_integralIT_EE5valueEiE4typeELi0EEbS1_T0_(i64 noundef %6, i64 noundef %7)
  ret i1 %8
}

; Function Attrs: mustprogress nounwind uwtable
define linkonce_odr hidden noundef i32 @_ZNK12ByteswapImplIjLm4EEclEj(ptr noundef nonnull align 1 dereferenceable(1) %0, i32 noundef %1) #1 comdat align 2 {
  %3 = alloca ptr, align 8
  %4 = alloca i32, align 4
  store ptr %0, ptr %3, align 8
  store i32 %1, ptr %4, align 4
  %5 = load i32, ptr %4, align 4
  %6 = call i32 @llvm.bswap.i32(i32 %5)
  ret i32 %6
}

; Function Attrs: mustprogress nounwind uwtable
define linkonce_odr hidden void @_ZN5Bytes10put_nativeItEEvPvT_(ptr noundef %0, i16 noundef zeroext %1) #1 comdat align 2 {
  %3 = alloca ptr, align 8
  %4 = alloca i16, align 2
  store ptr %0, ptr %3, align 8
  store i16 %1, ptr %4, align 2
  %5 = load ptr, ptr %3, align 8
  %6 = call noundef zeroext i1 @_Z10is_alignedIvmEbPT_T0_(ptr noundef %5, i64 noundef 2)
  br i1 %6, label %7, label %10

7:                                                ; preds = %2
  %8 = load i16, ptr %4, align 2
  %9 = load ptr, ptr %3, align 8
  store i16 %8, ptr %9, align 2
  br label %12

10:                                               ; preds = %2
  %11 = load ptr, ptr %3, align 8
  call void @llvm.memcpy.p0.p0.i64(ptr align 1 %11, ptr align 2 %4, i64 2, i1 false)
  br label %12

12:                                               ; preds = %10, %7
  ret void
}

; Function Attrs: mustprogress nounwind uwtable
define linkonce_odr hidden noundef zeroext i16 @_Z8byteswapItTnNSt9enable_ifIXcvbsr3std11is_integralIT_EE5valueEiE4typeELi0EES1_S1_(i16 noundef zeroext %0) #1 comdat {
  %2 = alloca i16, align 2
  %3 = alloca %struct.ByteswapImpl, align 1
  store i16 %0, ptr %2, align 2
  %4 = load i16, ptr %2, align 2
  %5 = call noundef zeroext i16 @_ZNK12ByteswapImplItLm2EEclEt(ptr noundef nonnull align 1 dereferenceable(1) %3, i16 noundef zeroext %4)
  ret i16 %5
}

; Function Attrs: mustprogress nounwind uwtable
define linkonce_odr hidden void @_ZN5Bytes10put_nativeIjEEvPvT_(ptr noundef %0, i32 noundef %1) #1 comdat align 2 {
  %3 = alloca ptr, align 8
  %4 = alloca i32, align 4
  store ptr %0, ptr %3, align 8
  store i32 %1, ptr %4, align 4
  %5 = load ptr, ptr %3, align 8
  %6 = call noundef zeroext i1 @_Z10is_alignedIvmEbPT_T0_(ptr noundef %5, i64 noundef 4)
  br i1 %6, label %7, label %10

7:                                                ; preds = %2
  %8 = load i32, ptr %4, align 4
  %9 = load ptr, ptr %3, align 8
  store i32 %8, ptr %9, align 4
  br label %12

10:                                               ; preds = %2
  %11 = load ptr, ptr %3, align 8
  call void @llvm.memcpy.p0.p0.i64(ptr align 1 %11, ptr align 4 %4, i64 4, i1 false)
  br label %12

12:                                               ; preds = %10, %7
  ret void
}

; Function Attrs: mustprogress nounwind uwtable
define linkonce_odr hidden noundef i32 @_Z8byteswapIjTnNSt9enable_ifIXcvbsr3std11is_integralIT_EE5valueEiE4typeELi0EES1_S1_(i32 noundef %0) #1 comdat {
  %2 = alloca i32, align 4
  %3 = alloca %struct.ByteswapImpl.14, align 1
  store i32 %0, ptr %2, align 4
  %4 = load i32, ptr %2, align 4
  %5 = call noundef i32 @_ZNK12ByteswapImplIjLm4EEclEj(ptr noundef nonnull align 1 dereferenceable(1) %3, i32 noundef %4)
  ret i32 %5
}

; Function Attrs: mustprogress nounwind uwtable
define linkonce_odr hidden noundef zeroext i1 @_ZN6Endian31is_Java_byte_ordering_differentEv() #1 comdat align 2 {
  ret i1 true
}

; Function Attrs: mustprogress nounwind uwtable
define linkonce_odr hidden void @_ZN5Bytes8put_JavaItEEvPhT_(ptr noundef %0, i16 noundef zeroext %1) #1 comdat align 2 {
  %3 = alloca ptr, align 8
  %4 = alloca i16, align 2
  store ptr %0, ptr %3, align 8
  store i16 %1, ptr %4, align 2
  %5 = call noundef zeroext i1 @_ZN6Endian31is_Java_byte_ordering_differentEv()
  br i1 %5, label %6, label %9

6:                                                ; preds = %2
  %7 = load i16, ptr %4, align 2
  %8 = call noundef zeroext i16 @_Z8byteswapItTnNSt9enable_ifIXcvbsr3std11is_integralIT_EE5valueEiE4typeELi0EES1_S1_(i16 noundef zeroext %7)
  store i16 %8, ptr %4, align 2
  br label %9

9:                                                ; preds = %6, %2
  %10 = load ptr, ptr %3, align 8
  %11 = load i16, ptr %4, align 2
  call void @_ZN5Bytes10put_nativeItEEvPvT_(ptr noundef %10, i16 noundef zeroext %11)
  ret void
}

; Function Attrs: mustprogress nounwind uwtable
define linkonce_odr hidden void @_ZN5Bytes8put_JavaIjEEvPhT_(ptr noundef %0, i32 noundef %1) #1 comdat align 2 {
  %3 = alloca ptr, align 8
  %4 = alloca i32, align 4
  store ptr %0, ptr %3, align 8
  store i32 %1, ptr %4, align 4
  %5 = call noundef zeroext i1 @_ZN6Endian31is_Java_byte_ordering_differentEv()
  br i1 %5, label %6, label %9

6:                                                ; preds = %2
  %7 = load i32, ptr %4, align 4
  %8 = call noundef i32 @_Z8byteswapIjTnNSt9enable_ifIXcvbsr3std11is_integralIT_EE5valueEiE4typeELi0EES1_S1_(i32 noundef %7)
  store i32 %8, ptr %4, align 4
  br label %9

9:                                                ; preds = %6, %2
  %10 = load ptr, ptr %3, align 8
  %11 = load i32, ptr %4, align 4
  call void @_ZN5Bytes10put_nativeIjEEvPvT_(ptr noundef %10, i32 noundef %11)
  ret void
}

; Function Attrs: mustprogress nounwind uwtable
define linkonce_odr hidden void @_ZN5Bytes11put_Java_u2EPht(ptr noundef %0, i16 noundef zeroext %1) #1 comdat align 2 {
  %3 = alloca ptr, align 8
  %4 = alloca i16, align 2
  store ptr %0, ptr %3, align 8
  store i16 %1, ptr %4, align 2
  %5 = load ptr, ptr %3, align 8
  %6 = load i16, ptr %4, align 2
  call void @_ZN5Bytes8put_JavaItEEvPhT_(ptr noundef %5, i16 noundef zeroext %6)
  ret void
}

; Function Attrs: mustprogress nounwind uwtable
define linkonce_odr hidden void @_ZN5Bytes11put_Java_u4EPhj(ptr noundef %0, i32 noundef %1) #1 comdat align 2 {
  %3 = alloca ptr, align 8
  %4 = alloca i32, align 4
  store ptr %0, ptr %3, align 8
  store i32 %1, ptr %4, align 4
  %5 = load ptr, ptr %3, align 8
  %6 = load i32, ptr %4, align 4
  call void @_ZN5Bytes8put_JavaIjEEvPhT_(ptr noundef %5, i32 noundef %6)
  ret void
}

; Function Attrs: mustprogress nounwind uwtable
define hidden noundef ptr @_ZN27JvmtiClassFileReconstituter17writeable_addressEm(ptr noundef nonnull align 8 dereferenceable(88) %0, i64 noundef %1) #1 align 2 {
  %3 = alloca ptr, align 8
  %4 = alloca i64, align 8
  %5 = alloca i64, align 8
  %6 = alloca i64, align 8
  %7 = alloca ptr, align 8
  store ptr %0, ptr %3, align 8
  store i64 %1, ptr %4, align 8
  %8 = load ptr, ptr %3, align 8
  %9 = getelementptr inbounds %class.JvmtiClassFileReconstituter, ptr %8, i32 0, i32 3
  %10 = load ptr, ptr %9, align 8
  %11 = getelementptr inbounds %class.JvmtiClassFileReconstituter, ptr %8, i32 0, i32 2
  %12 = load ptr, ptr %11, align 8
  %13 = ptrtoint ptr %10 to i64
  %14 = ptrtoint ptr %12 to i64
  %15 = sub i64 %13, %14
  store i64 %15, ptr %5, align 8
  %16 = load i64, ptr %4, align 8
  %17 = load i64, ptr %5, align 8
  %18 = add i64 %16, %17
  %19 = getelementptr inbounds %class.JvmtiClassFileReconstituter, ptr %8, i32 0, i32 1
  %20 = load i64, ptr %19, align 8
  %21 = icmp uge i64 %18, %20
  br i1 %21, label %22, label %47

22:                                               ; preds = %2
  %23 = load i64, ptr %4, align 8
  %24 = getelementptr inbounds %class.JvmtiClassFileReconstituter, ptr %8, i32 0, i32 1
  %25 = load i64, ptr %24, align 8
  %26 = mul i64 %25, 2
  %27 = add i64 %23, %26
  %28 = add i64 %27, 1
  %29 = udiv i64 %28, 1024
  %30 = mul i64 %29, 1024
  store i64 %30, ptr %6, align 8
  %31 = getelementptr inbounds %class.JvmtiClassFileReconstituter, ptr %8, i32 0, i32 2
  %32 = load ptr, ptr %31, align 8
  %33 = getelementptr inbounds %class.JvmtiClassFileReconstituter, ptr %8, i32 0, i32 1
  %34 = load i64, ptr %33, align 8
  %35 = mul i64 %34, 1
  %36 = load i64, ptr %6, align 8
  %37 = mul i64 %36, 1
  %38 = call noundef ptr @_Z25resource_reallocate_bytesPcmmN17AllocFailStrategy13AllocFailEnumE(ptr noundef %32, i64 noundef %35, i64 noundef %37, i32 noundef 0)
  %39 = getelementptr inbounds %class.JvmtiClassFileReconstituter, ptr %8, i32 0, i32 2
  store ptr %38, ptr %39, align 8
  %40 = load i64, ptr %6, align 8
  %41 = getelementptr inbounds %class.JvmtiClassFileReconstituter, ptr %8, i32 0, i32 1
  store i64 %40, ptr %41, align 8
  %42 = getelementptr inbounds %class.JvmtiClassFileReconstituter, ptr %8, i32 0, i32 2
  %43 = load ptr, ptr %42, align 8
  %44 = load i64, ptr %5, align 8
  %45 = getelementptr inbounds i8, ptr %43, i64 %44
  %46 = getelementptr inbounds %class.JvmtiClassFileReconstituter, ptr %8, i32 0, i32 3
  store ptr %45, ptr %46, align 8
  br label %47

47:                                               ; preds = %22, %2
  %48 = getelementptr inbounds %class.JvmtiClassFileReconstituter, ptr %8, i32 0, i32 3
  %49 = load ptr, ptr %48, align 8
  store ptr %49, ptr %7, align 8
  %50 = load i64, ptr %4, align 8
  %51 = getelementptr inbounds %class.JvmtiClassFileReconstituter, ptr %8, i32 0, i32 3
  %52 = load ptr, ptr %51, align 8
  %53 = getelementptr inbounds i8, ptr %52, i64 %50
  store ptr %53, ptr %51, align 8
  %54 = load ptr, ptr %7, align 8
  ret ptr %54
}

; Function Attrs: mustprogress nounwind uwtable
define hidden void @_ZN27JvmtiClassFileReconstituter8write_u2Et(ptr noundef nonnull align 8 dereferenceable(88) %0, i16 noundef zeroext %1) #1 align 2 {
  %3 = alloca ptr, align 8
  %4 = alloca i16, align 2
  store ptr %0, ptr %3, align 8
  store i16 %1, ptr %4, align 2
  %5 = load ptr, ptr %3, align 8
  %6 = call noundef ptr @_ZN27JvmtiClassFileReconstituter17writeable_addressEm(ptr noundef nonnull align 8 dereferenceable(88) %5, i64 noundef 2)
  %7 = load i16, ptr %4, align 2
  call void @_ZN5Bytes11put_Java_u2EPht(ptr noundef %6, i16 noundef zeroext %7)
  ret void
}

; Function Attrs: mustprogress nounwind uwtable
define hidden void @_ZN27JvmtiClassFileReconstituter8write_u4Ej(ptr noundef nonnull align 8 dereferenceable(88) %0, i32 noundef %1) #1 align 2 {
  %3 = alloca ptr, align 8
  %4 = alloca i32, align 4
  store ptr %0, ptr %3, align 8
  store i32 %1, ptr %4, align 4
  %5 = load ptr, ptr %3, align 8
  %6 = call noundef ptr @_ZN27JvmtiClassFileReconstituter17writeable_addressEm(ptr noundef nonnull align 8 dereferenceable(88) %5, i64 noundef 4)
  %7 = load i32, ptr %4, align 4
  call void @_ZN5Bytes11put_Java_u4EPhj(ptr noundef %6, i32 noundef %7)
  ret void
}

; Function Attrs: mustprogress nounwind uwtable
define hidden void @_ZN27JvmtiClassFileReconstituter26write_exceptions_attributeEP11ConstMethod(ptr noundef nonnull align 8 dereferenceable(88) %0, ptr noundef %1) #1 align 2 {
  %3 = alloca ptr, align 8
  %4 = alloca ptr, align 8
  %5 = alloca ptr, align 8
  %6 = alloca i16, align 2
  %7 = alloca i32, align 4
  %8 = alloca i32, align 4
  store ptr %0, ptr %3, align 8
  store ptr %1, ptr %4, align 8
  %9 = load ptr, ptr %3, align 8
  %10 = load ptr, ptr %4, align 8
  %11 = call noundef ptr @_ZNK11ConstMethod24checked_exceptions_startEv(ptr noundef nonnull align 8 dereferenceable(52) %10)
  store ptr %11, ptr %5, align 8
  %12 = load ptr, ptr %4, align 8
  %13 = call noundef zeroext i16 @_ZNK11ConstMethod25checked_exceptions_lengthEv(ptr noundef nonnull align 8 dereferenceable(52) %12)
  store i16 %13, ptr %6, align 2
  %14 = load i16, ptr %6, align 2
  %15 = zext i16 %14 to i32
  %16 = mul nsw i32 2, %15
  %17 = add nsw i32 2, %16
  store i32 %17, ptr %7, align 4
  call void @_ZN27JvmtiClassFileReconstituter26write_attribute_name_indexEPKc(ptr noundef nonnull align 8 dereferenceable(88) %9, ptr noundef @.str.12)
  %18 = load i32, ptr %7, align 4
  call void @_ZN27JvmtiClassFileReconstituter8write_u4Ej(ptr noundef nonnull align 8 dereferenceable(88) %9, i32 noundef %18)
  %19 = load i16, ptr %6, align 2
  call void @_ZN27JvmtiClassFileReconstituter8write_u2Et(ptr noundef nonnull align 8 dereferenceable(88) %9, i16 noundef zeroext %19)
  store i32 0, ptr %8, align 4
  br label %20

20:                                               ; preds = %32, %2
  %21 = load i32, ptr %8, align 4
  %22 = load i16, ptr %6, align 2
  %23 = zext i16 %22 to i32
  %24 = icmp slt i32 %21, %23
  br i1 %24, label %25, label %35

25:                                               ; preds = %20
  %26 = load ptr, ptr %5, align 8
  %27 = load i32, ptr %8, align 4
  %28 = sext i32 %27 to i64
  %29 = getelementptr inbounds %class.CheckedExceptionElement, ptr %26, i64 %28
  %30 = getelementptr inbounds %class.CheckedExceptionElement, ptr %29, i32 0, i32 0
  %31 = load i16, ptr %30, align 2
  call void @_ZN27JvmtiClassFileReconstituter8write_u2Et(ptr noundef nonnull align 8 dereferenceable(88) %9, i16 noundef zeroext %31)
  br label %32

32:                                               ; preds = %25
  %33 = load i32, ptr %8, align 4
  %34 = add nsw i32 %33, 1
  store i32 %34, ptr %8, align 4
  br label %20, !llvm.loop !15

35:                                               ; preds = %20
  ret void
}