; Function Attrs: mustprogress nounwind uwtable
define hidden void @_ZN27JvmtiClassFileReconstituter26write_exceptions_attributeEP11ConstMethod(ptr nocapture noundef nonnull align 8 dereferenceable(88) %0, ptr noundef nonnull %1) local_unnamed_addr #0 align 2 {
  %3 = tail call noundef ptr @_ZNK11ConstMethod24checked_exceptions_startEv(ptr noundef nonnull align 8 dereferenceable(52) %1) #12
  %4 = tail call noundef zeroext i16 @_ZNK11ConstMethod25checked_exceptions_lengthEv(ptr noundef nonnull align 8 dereferenceable(52) %1) #12
  %5 = zext i16 %4 to i32
  %6 = shl nuw nsw i32 %5, 1
  %7 = add nuw nsw i32 %6, 2
  tail call void @_ZN27JvmtiClassFileReconstituter26write_attribute_name_indexEPKc(ptr noundef nonnull align 8 dereferenceable(88) %0, ptr noundef nonnull @.str.12)
  %8 = getelementptr inbounds i8, ptr %0, i64 72
  %9 = load ptr, ptr %8, align 8
  %10 = getelementptr inbounds i8, ptr %0, i64 64
  %11 = load ptr, ptr %10, align 8
  %12 = ptrtoint ptr %9 to i64
  %13 = ptrtoint ptr %11 to i64
  %14 = sub i64 %12, %13
  %15 = add i64 %14, 4
  %16 = getelementptr inbounds i8, ptr %0, i64 56
  %17 = load i64, ptr %16, align 8
  %.not.i.i = icmp ult i64 %15, %17
  br i1 %.not.i.i, label %_ZN27JvmtiClassFileReconstituter17writeable_addressEm.exit.i, label %18

18:                                               ; preds = %2
  %19 = shl i64 %17, 1
  %20 = add i64 %19, 5
  %21 = and i64 %20, -1024
  %22 = tail call noundef ptr @_Z25resource_reallocate_bytesPcmmN17AllocFailStrategy13AllocFailEnumE(ptr noundef %11, i64 noundef %17, i64 noundef %21, i32 noundef 0) #12
  store ptr %22, ptr %10, align 8
  store i64 %21, ptr %16, align 8
  %23 = getelementptr inbounds i8, ptr %22, i64 %14
  %.pre.i = ptrtoint ptr %23 to i64
  br label %_ZN27JvmtiClassFileReconstituter17writeable_addressEm.exit.i

_ZN27JvmtiClassFileReconstituter17writeable_addressEm.exit.i: ; preds = %18, %2
  %.pre-phi.i = phi i64 [ %12, %2 ], [ %.pre.i, %18 ]
  %24 = phi ptr [ %9, %2 ], [ %23, %18 ]
  %25 = getelementptr inbounds i8, ptr %24, i64 4
  store ptr %25, ptr %8, align 8
  %26 = tail call noundef i32 @llvm.bswap.i32(i32 %7)
  %27 = and i64 %.pre-phi.i, 3
  %28 = icmp eq i64 %27, 0
  br i1 %28, label %29, label %30

29:                                               ; preds = %_ZN27JvmtiClassFileReconstituter17writeable_addressEm.exit.i
  store i32 %26, ptr %24, align 4
  br label %_ZN27JvmtiClassFileReconstituter8write_u4Ej.exit

30:                                               ; preds = %_ZN27JvmtiClassFileReconstituter17writeable_addressEm.exit.i
  store i32 %26, ptr %24, align 1
  br label %_ZN27JvmtiClassFileReconstituter8write_u4Ej.exit

_ZN27JvmtiClassFileReconstituter8write_u4Ej.exit: ; preds = %29, %30
  %31 = load ptr, ptr %8, align 8
  %32 = load ptr, ptr %10, align 8
  %33 = ptrtoint ptr %31 to i64
  %34 = ptrtoint ptr %32 to i64
  %35 = sub i64 %33, %34
  %36 = add i64 %35, 2
  %37 = load i64, ptr %16, align 8
  %.not.i.i10 = icmp ult i64 %36, %37
  br i1 %.not.i.i10, label %_ZN27JvmtiClassFileReconstituter17writeable_addressEm.exit.i12, label %38

38:                                               ; preds = %_ZN27JvmtiClassFileReconstituter8write_u4Ej.exit
  %39 = shl i64 %37, 1
  %40 = add i64 %39, 3
  %41 = and i64 %40, -1024
  %42 = tail call noundef ptr @_Z25resource_reallocate_bytesPcmmN17AllocFailStrategy13AllocFailEnumE(ptr noundef %32, i64 noundef %37, i64 noundef %41, i32 noundef 0) #12
  store ptr %42, ptr %10, align 8
  store i64 %41, ptr %16, align 8
  %43 = getelementptr inbounds i8, ptr %42, i64 %35
  %.pre.i11 = ptrtoint ptr %43 to i64
  br label %_ZN27JvmtiClassFileReconstituter17writeable_addressEm.exit.i12

_ZN27JvmtiClassFileReconstituter17writeable_addressEm.exit.i12: ; preds = %38, %_ZN27JvmtiClassFileReconstituter8write_u4Ej.exit
  %.pre-phi.i13 = phi i64 [ %33, %_ZN27JvmtiClassFileReconstituter8write_u4Ej.exit ], [ %.pre.i11, %38 ]
  %44 = phi ptr [ %31, %_ZN27JvmtiClassFileReconstituter8write_u4Ej.exit ], [ %43, %38 ]
  %45 = getelementptr inbounds i8, ptr %44, i64 2
  store ptr %45, ptr %8, align 8
  %46 = tail call noundef i16 @llvm.bswap.i16(i16 %4)
  %47 = and i64 %.pre-phi.i13, 1
  %48 = icmp eq i64 %47, 0
  br i1 %48, label %49, label %50

49:                                               ; preds = %_ZN27JvmtiClassFileReconstituter17writeable_addressEm.exit.i12
  store i16 %46, ptr %44, align 2
  br label %_ZN27JvmtiClassFileReconstituter8write_u2Et.exit

50:                                               ; preds = %_ZN27JvmtiClassFileReconstituter17writeable_addressEm.exit.i12
  store i16 %46, ptr %44, align 1
  br label %_ZN27JvmtiClassFileReconstituter8write_u2Et.exit

_ZN27JvmtiClassFileReconstituter8write_u2Et.exit: ; preds = %49, %50
  %.not = icmp eq i16 %4, 0
  br i1 %.not, label %._crit_edge, label %.lr.ph.preheader

.lr.ph.preheader:                                 ; preds = %_ZN27JvmtiClassFileReconstituter8write_u2Et.exit
  %wide.trip.count = zext i16 %4 to i64
  br label %.lr.ph

.lr.ph:                                           ; preds = %.lr.ph.preheader, %_ZN27JvmtiClassFileReconstituter8write_u2Et.exit18
  %indvars.iv = phi i64 [ 0, %.lr.ph.preheader ], [ %indvars.iv.next, %_ZN27JvmtiClassFileReconstituter8write_u2Et.exit18 ]
  %51 = getelementptr inbounds %class.CheckedExceptionElement, ptr %3, i64 %indvars.iv
  %52 = load i16, ptr %51, align 2
  %53 = load ptr, ptr %8, align 8
  %54 = load ptr, ptr %10, align 8
  %55 = ptrtoint ptr %53 to i64
  %56 = ptrtoint ptr %54 to i64
  %57 = sub i64 %55, %56
  %58 = add i64 %57, 2
  %59 = load i64, ptr %16, align 8
  %.not.i.i14 = icmp ult i64 %58, %59
  br i1 %.not.i.i14, label %_ZN27JvmtiClassFileReconstituter17writeable_addressEm.exit.i16, label %60

60:                                               ; preds = %.lr.ph
  %61 = shl i64 %59, 1
  %62 = add i64 %61, 3
  %63 = and i64 %62, -1024
  %64 = tail call noundef ptr @_Z25resource_reallocate_bytesPcmmN17AllocFailStrategy13AllocFailEnumE(ptr noundef %54, i64 noundef %59, i64 noundef %63, i32 noundef 0) #12
  store ptr %64, ptr %10, align 8
  store i64 %63, ptr %16, align 8
  %65 = getelementptr inbounds i8, ptr %64, i64 %57
  %.pre.i15 = ptrtoint ptr %65 to i64
  br label %_ZN27JvmtiClassFileReconstituter17writeable_addressEm.exit.i16

_ZN27JvmtiClassFileReconstituter17writeable_addressEm.exit.i16: ; preds = %60, %.lr.ph
  %.pre-phi.i17 = phi i64 [ %55, %.lr.ph ], [ %.pre.i15, %60 ]
  %66 = phi ptr [ %53, %.lr.ph ], [ %65, %60 ]
  %67 = getelementptr inbounds i8, ptr %66, i64 2
  store ptr %67, ptr %8, align 8
  %68 = tail call noundef i16 @llvm.bswap.i16(i16 %52)
  %69 = and i64 %.pre-phi.i17, 1
  %70 = icmp eq i64 %69, 0
  br i1 %70, label %71, label %72

71:                                               ; preds = %_ZN27JvmtiClassFileReconstituter17writeable_addressEm.exit.i16
  store i16 %68, ptr %66, align 2
  br label %_ZN27JvmtiClassFileReconstituter8write_u2Et.exit18

72:                                               ; preds = %_ZN27JvmtiClassFileReconstituter17writeable_addressEm.exit.i16
  store i16 %68, ptr %66, align 1
  br label %_ZN27JvmtiClassFileReconstituter8write_u2Et.exit18

_ZN27JvmtiClassFileReconstituter8write_u2Et.exit18: ; preds = %71, %72
  %indvars.iv.next = add nuw nsw i64 %indvars.iv, 1
  %exitcond.not = icmp eq i64 %indvars.iv.next, %wide.trip.count
  br i1 %exitcond.not, label %._crit_edge, label %.lr.ph, !llvm.loop !18

._crit_edge:                                      ; preds = %_ZN27JvmtiClassFileReconstituter8write_u2Et.exit18, %_ZN27JvmtiClassFileReconstituter8write_u2Et.exit
  ret void
}